target datalayout = "e-m:e-p270:32:32-p271:32:32-p272:64:64-i64:64-i128:128-f80:128-n8:16:32:64-S128"
target triple = "x86_64-pc-linux-gnu"

%struct.FunctionCallInfoBaseData = type { ptr, ptr, ptr, i32, i8, i16, [0 x %struct.NullableDatum] }
%struct.NullableDatum = type { i64, i8 }

@.str.2 = private unnamed_addr constant [6 x i8] c"int.c\00", align 1
@.str.7 = private unnamed_addr constant [21 x i8] c"integer out of range\00", align 1
@.str.8 = private unnamed_addr constant [17 x i8] c"division by zero\00", align 1
@__func__.int42div = private unnamed_addr constant [9 x i8] c"int42div\00", align 1

; Function Attrs: inlinehint nounwind uwtable
define internal i64 @Int32GetDatum(i32 noundef %0) #2 {
  %2 = alloca i32, align 4
  store i32 %0, ptr %2, align 4
  %3 = load i32, ptr %2, align 4
  %4 = sext i32 %3 to i64
  ret i64 %4
}

; Function Attrs: inlinehint nounwind uwtable
define internal signext i16 @DatumGetInt16(i64 noundef %0) #2 {
  %2 = alloca i64, align 8
  store i64 %0, ptr %2, align 8
  %3 = load i64, ptr %2, align 8
  %4 = trunc i64 %3 to i16
  ret i16 %4
}

; Function Attrs: inlinehint nounwind uwtable
define internal i32 @DatumGetInt32(i64 noundef %0) #2 {
  %2 = alloca i64, align 8
  store i64 %0, ptr %2, align 8
  %3 = load i64, ptr %2, align 8
  %4 = trunc i64 %3 to i32
  ret i32 %4
}

; Function Attrs: nounwind uwtable
define dso_local i64 @int42div(ptr noundef %0) #0 {
  %2 = alloca i64, align 8
  %3 = alloca ptr, align 8
  %4 = alloca i32, align 4
  %5 = alloca i16, align 2
  %6 = alloca i32, align 4
  %7 = alloca i32, align 4
  store ptr %0, ptr %3, align 8
  call void @llvm.lifetime.start.p0(i64 4, ptr %4) #10
  %8 = load ptr, ptr %3, align 8
  %9 = getelementptr inbounds nuw %struct.FunctionCallInfoBaseData, ptr %8, i32 0, i32 6
  %10 = getelementptr inbounds [0 x %struct.NullableDatum], ptr %9, i64 0, i64 0
  %11 = getelementptr inbounds nuw %struct.NullableDatum, ptr %10, i32 0, i32 0
  %12 = load i64, ptr %11, align 8
  %13 = call i32 @DatumGetInt32(i64 noundef %12)
  store i32 %13, ptr %4, align 4
  call void @llvm.lifetime.start.p0(i64 2, ptr %5) #10
  %14 = load ptr, ptr %3, align 8
  %15 = getelementptr inbounds nuw %struct.FunctionCallInfoBaseData, ptr %14, i32 0, i32 6
  %16 = getelementptr inbounds [0 x %struct.NullableDatum], ptr %15, i64 0, i64 1
  %17 = getelementptr inbounds nuw %struct.NullableDatum, ptr %16, i32 0, i32 0
  %18 = load i64, ptr %17, align 8
  %19 = call signext i16 @DatumGetInt16(i64 noundef %18)
  store i16 %19, ptr %5, align 2
  call void @llvm.lifetime.start.p0(i64 4, ptr %6) #10
  %20 = load i16, ptr %5, align 2
  %21 = sext i16 %20 to i32
  %22 = icmp eq i32 %21, 0
  %23 = zext i1 %22 to i32
  %24 = icmp ne i32 %23, 0
  %25 = zext i1 %24 to i32
  %26 = sext i32 %25 to i64
  %27 = call i64 @llvm.expect.i64(i64 %26, i64 0)
  %28 = icmp ne i64 %27, 0
  br i1 %28, label %29, label %46

29:                                               ; preds = %1
  br label %30

30:                                               ; preds = %29
  br i1 true, label %31, label %33

31:                                               ; preds = %30
  %32 = call zeroext i1 @errstart_cold(i32 noundef 21, ptr noundef null) #12
  br i1 %32, label %35, label %38

33:                                               ; preds = %30
  %34 = call zeroext i1 @errstart(i32 noundef 21, ptr noundef null)
  br i1 %34, label %35, label %38

35:                                               ; preds = %33, %31
  %36 = call i32 @errcode(i32 noundef 33816706)
  %37 = call i32 (ptr, ...) @errmsg(ptr noundef @.str.8)
  call void @errfinish(ptr noundef @.str.2, i32 noundef 1101, ptr noundef @__func__.int42div)
  br label %38

38:                                               ; preds = %35, %33, %31
  unreachable

39:                                               ; No predecessors!
  br label %40

40:                                               ; preds = %39
  br label %41

41:                                               ; preds = %40
  %42 = load ptr, ptr %3, align 8
  %43 = getelementptr inbounds nuw %struct.FunctionCallInfoBaseData, ptr %42, i32 0, i32 4
  store i8 1, ptr %43, align 4
  store i64 0, ptr %2, align 8
  store i32 1, ptr %7, align 4
  br label %83

44:                                               ; No predecessors!
  br label %45

45:                                               ; preds = %44
  br label %46

46:                                               ; preds = %45, %1
  %47 = load i16, ptr %5, align 2
  %48 = sext i16 %47 to i32
  %49 = icmp eq i32 %48, -1
  br i1 %49, label %50, label %76

50:                                               ; preds = %46
  %51 = load i32, ptr %4, align 4
  %52 = icmp eq i32 %51, -2147483648
  %53 = zext i1 %52 to i32
  %54 = icmp ne i32 %53, 0
  %55 = zext i1 %54 to i32
  %56 = sext i32 %55 to i64
  %57 = call i64 @llvm.expect.i64(i64 %56, i64 0)
  %58 = icmp ne i64 %57, 0
  br i1 %58, label %59, label %71

59:                                               ; preds = %50
  br label %60

60:                                               ; preds = %59
  br i1 true, label %61, label %63

61:                                               ; preds = %60
  %62 = call zeroext i1 @errstart_cold(i32 noundef 21, ptr noundef null) #12
  br i1 %62, label %65, label %68

63:                                               ; preds = %60
  %64 = call zeroext i1 @errstart(i32 noundef 21, ptr noundef null)
  br i1 %64, label %65, label %68

65:                                               ; preds = %63, %61
  %66 = call i32 @errcode(i32 noundef 50331778)
  %67 = call i32 (ptr, ...) @errmsg(ptr noundef @.str.7)
  call void @errfinish(ptr noundef @.str.2, i32 noundef 1117, ptr noundef @__func__.int42div)
  br label %68

68:                                               ; preds = %65, %63, %61
  unreachable

69:                                               ; No predecessors!
  br label %70

70:                                               ; preds = %69
  br label %71

71:                                               ; preds = %70, %50
  %72 = load i32, ptr %4, align 4
  %73 = sub i32 0, %72
  store i32 %73, ptr %6, align 4
  %74 = load i32, ptr %6, align 4
  %75 = call i64 @Int32GetDatum(i32 noundef %74)
  store i64 %75, ptr %2, align 8
  store i32 1, ptr %7, align 4
  br label %83

76:                                               ; preds = %46
  %77 = load i32, ptr %4, align 4
  %78 = load i16, ptr %5, align 2
  %79 = sext i16 %78 to i32
  %80 = sdiv i32 %77, %79
  store i32 %80, ptr %6, align 4
  %81 = load i32, ptr %6, align 4
  %82 = call i64 @Int32GetDatum(i32 noundef %81)
  store i64 %82, ptr %2, align 8
  store i32 1, ptr %7, align 4
  br label %83

83:                                               ; preds = %76, %71, %41
  call void @llvm.lifetime.end.p0(i64 4, ptr %6) #10
  call void @llvm.lifetime.end.p0(i64 2, ptr %5) #10
  call void @llvm.lifetime.end.p0(i64 4, ptr %4) #10
  %84 = load i64, ptr %2, align 8
  ret i64 %84
}